target datalayout = "e-m:e-p270:32:32-p271:32:32-p272:64:64-i64:64-i128:128-f80:128-n8:16:32:64-S128"
target triple = "x86_64-pc-linux-gnu"

%struct.Aig_MmFixed_t_ = type { i32, i32, i32, i32, ptr, i32, i32, i32, ptr, i32, i32 }
%struct.Aig_MmStep_t_ = type { i32, ptr, i32, ptr, i32, i32, ptr }

; Function Attrs: nounwind uwtable
define i32 @Aig_MmStepReadMemUsage(ptr noundef %0) #0 {
  %2 = alloca ptr, align 8
  %3 = alloca i32, align 4
  %4 = alloca i32, align 4
  store ptr %0, ptr %2, align 8, !tbaa !44
  call void @llvm.lifetime.start.p0(i64 4, ptr %3) #7
  call void @llvm.lifetime.start.p0(i64 4, ptr %4) #7
  store i32 0, ptr %4, align 4, !tbaa !3
  store i32 0, ptr %3, align 4, !tbaa !3
  br label %5

5:                                                ; preds = %23, %1
  %6 = load i32, ptr %3, align 4, !tbaa !3
  %7 = load ptr, ptr %2, align 8, !tbaa !44
  %8 = getelementptr inbounds nuw %struct.Aig_MmStep_t_, ptr %7, i32 0, i32 0
  %9 = load i32, ptr %8, align 8, !tbaa !46
  %10 = icmp slt i32 %6, %9
  br i1 %10, label %11, label %26

11:                                               ; preds = %5
  %12 = load ptr, ptr %2, align 8, !tbaa !44
  %13 = getelementptr inbounds nuw %struct.Aig_MmStep_t_, ptr %12, i32 0, i32 1
  %14 = load ptr, ptr %13, align 8, !tbaa !49
  %15 = load i32, ptr %3, align 4, !tbaa !3
  %16 = sext i32 %15 to i64
  %17 = getelementptr inbounds ptr, ptr %14, i64 %16
  %18 = load ptr, ptr %17, align 8, !tbaa !7
  %19 = getelementptr inbounds nuw %struct.Aig_MmFixed_t_, ptr %18, i32 0, i32 10
  %20 = load i32, ptr %19, align 4, !tbaa !22
  %21 = load i32, ptr %4, align 4, !tbaa !3
  %22 = add nsw i32 %21, %20
  store i32 %22, ptr %4, align 4, !tbaa !3
  br label %23

23:                                               ; preds = %11
  %24 = load i32, ptr %3, align 4, !tbaa !3
  %25 = add nsw i32 %24, 1
  store i32 %25, ptr %3, align 4, !tbaa !3
  br label %5, !llvm.loop !61

26:                                               ; preds = %5
  %27 = load i32, ptr %4, align 4, !tbaa !3
  call void @llvm.lifetime.end.p0(i64 4, ptr %4) #7
  call void @llvm.lifetime.end.p0(i64 4, ptr %3) #7
  ret i32 %27
}