; Function Attrs: nofree norecurse nosync nounwind memory(read, inaccessiblemem: none) uwtable
define i32 @Aig_MmStepReadMemUsage(ptr noundef readonly captures(none) %0) local_unnamed_addr #11 {
  %2 = load i32, ptr %0, align 8, !tbaa !39
  %3 = icmp sgt i32 %2, 0
  br i1 %3, label %.lr.ph, label %._crit_edge

.lr.ph:                                           ; preds = %1
  %4 = getelementptr inbounds nuw i8, ptr %0, i64 8
  %5 = load ptr, ptr %4, align 8, !tbaa !42
  %wide.trip.count = zext nneg i32 %2 to i64
  br label %6

6:                                                ; preds = %.lr.ph, %6
  %indvars.iv = phi i64 [ 0, %.lr.ph ], [ %indvars.iv.next, %6 ]
  %.08 = phi i32 [ 0, %.lr.ph ], [ %11, %6 ]
  %7 = getelementptr inbounds nuw ptr, ptr %5, i64 %indvars.iv
  %8 = load ptr, ptr %7, align 8, !tbaa !43
  %9 = getelementptr inbounds nuw i8, ptr %8, i64 52
  %10 = load i32, ptr %9, align 4, !tbaa !17
  %11 = add nsw i32 %10, %.08
  %indvars.iv.next = add nuw nsw i64 %indvars.iv, 1
  %exitcond.not = icmp eq i64 %indvars.iv.next, %wide.trip.count
  br i1 %exitcond.not, label %._crit_edge, label %6, !llvm.loop !56

._crit_edge:                                      ; preds = %6, %1
  %.0.lcssa = phi i32 [ 0, %1 ], [ %11, %6 ]
  ret i32 %.0.lcssa
}